; Function Attrs: mustprogress nounwind uwtable
define hidden noundef ptr @_ZN6hermes12evalToStringERNS_9IRBuilderEPNS_7LiteralE(ptr noundef nonnull align 8 dereferenceable(40) %builder, ptr noundef readonly %operand) local_unnamed_addr #0 {
entry:
  %buf = alloca [32 x i8], align 16
  %0 = load i8, ptr %operand, align 8
  switch i8 %0, label %return.fold.split [
    i8 116, label %return
    i8 114, label %if.then3
  ]

if.then3:                                         ; preds = %entry
  %value.i = getelementptr inbounds nuw i8, ptr %operand, i64 48
  %1 = load double, ptr %value.i, align 8
  %call5 = call noundef i64 @_ZN6hermes14numberToStringEdPcm(double noundef %1, ptr noundef nonnull %buf, i64 noundef 32) #6
  %call7 = call noundef ptr @_ZN6hermes9IRBuilder16getLiteralStringEN4llvh9StringRefE(ptr noundef nonnull align 8 dereferenceable(40) %builder, ptr nonnull %buf, i64 %call5) #6
  br label %return

return.fold.split:                                ; preds = %entry
  br label %return

return:                                           ; preds = %entry, %return.fold.split, %if.then3
  %retval.0 = phi ptr [ %call7, %if.then3 ], [ %operand, %entry ], [ null, %return.fold.split ]
  ret ptr %retval.0
}